; ModuleID = '25/938.c'
source_filename = "25/938.c"
target datalayout = "e-m:e-p270:32:32-p271:32:32-p272:64:64-i64:64-f80:128-n8:16:32:64-S128"
target triple = "x86_64-pc-linux-gnu"

@.str = private unnamed_addr constant [3 x i8] c"%d\00", align 1
@.str.1 = private unnamed_addr constant [2 x i8] c"\0A\00", align 1

; Function Attrs: noinline nounwind uwtable
define dso_local i32 @main() #0 {
  %1 = alloca i32, align 4
  %2 = alloca i32, align 4
  %3 = alloca i32, align 4
  %4 = alloca i32, align 4
  %5 = alloca i32, align 4
  %6 = alloca [10000 x i32], align 16
  store i32 0, i32* %1, align 4
  br label %7

7:                                                ; preds = %110, %0
  %8 = call i32 (i8*, ...) @__isoc99_scanf(i8* getelementptr inbounds ([3 x i8], [3 x i8]* @.str, i64 0, i64 0), i32* %4)
  %9 = icmp ne i32 %8, -1
  br i1 %9, label %10, label %112

10:                                               ; preds = %7
  store i32 1, i32* %5, align 4
  store i32 1, i32* %2, align 4
  br label %11

11:                                               ; preds = %18, %10
  %12 = load i32, i32* %2, align 4
  %13 = icmp slt i32 %12, 10000
  br i1 %13, label %14, label %21

14:                                               ; preds = %11
  %15 = load i32, i32* %2, align 4
  %16 = sext i32 %15 to i64
  %17 = getelementptr inbounds [10000 x i32], [10000 x i32]* %6, i64 0, i64 %16
  store i32 0, i32* %17, align 4
  br label %18

18:                                               ; preds = %14
  %19 = load i32, i32* %2, align 4
  %20 = add nsw i32 %19, 1
  store i32 %20, i32* %2, align 4
  br label %11

21:                                               ; preds = %11
  %22 = getelementptr inbounds [10000 x i32], [10000 x i32]* %6, i64 0, i64 0
  store i32 1, i32* %22, align 16
  store i32 1, i32* %3, align 4
  br label %23

23:                                               ; preds = %92, %21
  %24 = load i32, i32* %3, align 4
  %25 = load i32, i32* %4, align 4
  %26 = icmp sle i32 %24, %25
  br i1 %26, label %27, label %95

27:                                               ; preds = %23
  store i32 0, i32* %2, align 4
  br label %28

28:                                               ; preds = %41, %27
  %29 = load i32, i32* %2, align 4
  %30 = load i32, i32* %5, align 4
  %31 = icmp slt i32 %29, %30
  br i1 %31, label %32, label %44

32:                                               ; preds = %28
  %33 = load i32, i32* %2, align 4
  %34 = sext i32 %33 to i64
  %35 = getelementptr inbounds [10000 x i32], [10000 x i32]* %6, i64 0, i64 %34
  %36 = load i32, i32* %35, align 4
  %37 = mul nsw i32 %36, 2
  %38 = load i32, i32* %2, align 4
  %39 = sext i32 %38 to i64
  %40 = getelementptr inbounds [10000 x i32], [10000 x i32]* %6, i64 0, i64 %39
  store i32 %37, i32* %40, align 4
  br label %41

41:                                               ; preds = %32
  %42 = load i32, i32* %2, align 4
  %43 = add nsw i32 %42, 1
  store i32 %43, i32* %2, align 4
  br label %28

44:                                               ; preds = %28
  store i32 0, i32* %2, align 4
  br label %45

45:                                               ; preds = %88, %44
  %46 = load i32, i32* %2, align 4
  %47 = load i32, i32* %5, align 4
  %48 = icmp slt i32 %46, %47
  br i1 %48, label %49, label %91

49:                                               ; preds = %45
  %50 = load i32, i32* %2, align 4
  %51 = sext i32 %50 to i64
  %52 = getelementptr inbounds [10000 x i32], [10000 x i32]* %6, i64 0, i64 %51
  %53 = load i32, i32* %52, align 4
  %54 = icmp sge i32 %53, 10
  br i1 %54, label %55, label %87

55:                                               ; preds = %49
  %56 = load i32, i32* %2, align 4
  %57 = add nsw i32 %56, 1
  %58 = sext i32 %57 to i64
  %59 = getelementptr inbounds [10000 x i32], [10000 x i32]* %6, i64 0, i64 %58
  %60 = load i32, i32* %59, align 4
  %61 = load i32, i32* %2, align 4
  %62 = sext i32 %61 to i64
  %63 = getelementptr inbounds [10000 x i32], [10000 x i32]* %6, i64 0, i64 %62
  %64 = load i32, i32* %63, align 4
  %65 = sdiv i32 %64, 10
  %66 = add nsw i32 %60, %65
  %67 = load i32, i32* %2, align 4
  %68 = add nsw i32 %67, 1
  %69 = sext i32 %68 to i64
  %70 = getelementptr inbounds [10000 x i32], [10000 x i32]* %6, i64 0, i64 %69
  store i32 %66, i32* %70, align 4
  %71 = load i32, i32* %2, align 4
  %72 = add nsw i32 %71, 1
  %73 = load i32, i32* %5, align 4
  %74 = icmp eq i32 %72, %73
  br i1 %74, label %75, label %78

75:                                               ; preds = %55
  %76 = load i32, i32* %5, align 4
  %77 = add nsw i32 %76, 1
  store i32 %77, i32* %5, align 4
  br label %78

78:                                               ; preds = %75, %55
  %79 = load i32, i32* %2, align 4
  %80 = sext i32 %79 to i64
  %81 = getelementptr inbounds [10000 x i32], [10000 x i32]* %6, i64 0, i64 %80
  %82 = load i32, i32* %81, align 4
  %83 = srem i32 %82, 10
  %84 = load i32, i32* %2, align 4
  %85 = sext i32 %84 to i64
  %86 = getelementptr inbounds [10000 x i32], [10000 x i32]* %6, i64 0, i64 %85
  store i32 %83, i32* %86, align 4
  br label %87

87:                                               ; preds = %78, %49
  br label %88

88:                                               ; preds = %87
  %89 = load i32, i32* %2, align 4
  %90 = add nsw i32 %89, 1
  store i32 %90, i32* %2, align 4
  br label %45

91:                                               ; preds = %45
  br label %92

92:                                               ; preds = %91
  %93 = load i32, i32* %3, align 4
  %94 = add nsw i32 %93, 1
  store i32 %94, i32* %3, align 4
  br label %23

95:                                               ; preds = %23
  %96 = load i32, i32* %5, align 4
  %97 = sub nsw i32 %96, 1
  store i32 %97, i32* %2, align 4
  br label %98

98:                                               ; preds = %107, %95
  %99 = load i32, i32* %2, align 4
  %100 = icmp sge i32 %99, 0
  br i1 %100, label %101, label %110

101:                                              ; preds = %98
  %102 = load i32, i32* %2, align 4
  %103 = sext i32 %102 to i64
  %104 = getelementptr inbounds [10000 x i32], [10000 x i32]* %6, i64 0, i64 %103
  %105 = load i32, i32* %104, align 4
  %106 = call i32 (i8*, ...) @printf(i8* getelementptr inbounds ([3 x i8], [3 x i8]* @.str, i64 0, i64 0), i32 %105)
  br label %107

107:                                              ; preds = %101
  %108 = load i32, i32* %2, align 4
  %109 = add nsw i32 %108, -1
  store i32 %109, i32* %2, align 4
  br label %98

110:                                              ; preds = %98
  %111 = call i32 (i8*, ...) @printf(i8* getelementptr inbounds ([2 x i8], [2 x i8]* @.str.1, i64 0, i64 0))
  br label %7

112:                                              ; preds = %7
  ret i32 0
}

declare dso_local i32 @__isoc99_scanf(i8*, ...) #1

declare dso_local i32 @printf(i8*, ...) #1


!llvm.module.flags = !{!0}
!llvm.ident = !{!1}

!0 = !{i32 1, !"wchar_size", i32 4}
!1 = !{!"clang version 10.0.0-4ubuntu1 "}
